; Function Attrs: mustprogress uwtable
define void @_ZNK32pxrInternal_v0_24__pxrReserved__15SdfAbstractData10VisitSpecsEPNS_26SdfAbstractDataSpecVisitorE(ptr noundef nonnull align 8 dereferenceable(24) %0, ptr noundef %1) local_unnamed_addr #1 align 2 {
  %3 = alloca %"class.pxrInternal_v0_24__pxrReserved__::TfCallContext", align 8
  %.not = icmp eq ptr %1, null
  br i1 %.not, label %4, label %.critedge

4:                                                ; preds = %2
  store ptr @.str.7, ptr %3, align 8
  %5 = getelementptr inbounds nuw i8, ptr %3, i64 8
  store ptr @__func__._ZNK32pxrInternal_v0_24__pxrReserved__15SdfAbstractData10VisitSpecsEPNS_26SdfAbstractDataSpecVisitorE, ptr %5, align 8
  %6 = getelementptr inbounds nuw i8, ptr %3, i64 16
  store i64 239, ptr %6, align 8
  %7 = getelementptr inbounds nuw i8, ptr %3, i64 24
  store ptr @__PRETTY_FUNCTION__._ZNK32pxrInternal_v0_24__pxrReserved__15SdfAbstractData10VisitSpecsEPNS_26SdfAbstractDataSpecVisitorE, ptr %7, align 8
  %8 = getelementptr inbounds nuw i8, ptr %3, i64 32
  store i8 0, ptr %8, align 8
  %9 = call noundef zeroext i1 @_ZN32pxrInternal_v0_24__pxrReserved__21Tf_FailedVerifyHelperERKNS_13TfCallContextEPKcS4_(ptr noundef nonnull align 8 dereferenceable(33) %3, ptr noundef nonnull @.str.8, ptr noundef null)
  br i1 %9, label %.critedge, label %16

.critedge:                                        ; preds = %2, %4
  %10 = load ptr, ptr %0, align 8
  %11 = getelementptr inbounds i8, ptr %10, i64 312
  %12 = load ptr, ptr %11, align 8
  call void %12(ptr noundef nonnull align 8 dereferenceable(24) %0, ptr noundef %1)
  %13 = load ptr, ptr %1, align 8
  %14 = getelementptr inbounds i8, ptr %13, i64 24
  %15 = load ptr, ptr %14, align 8
  call void %15(ptr noundef nonnull align 8 dereferenceable(8) %1, ptr noundef nonnull align 8 dereferenceable(24) %0)
  br label %16

16:                                               ; preds = %.critedge, %4
  ret void
}